target datalayout = "e-m:e-p270:32:32-p271:32:32-p272:64:64-i64:64-i128:128-f80:128-n8:16:32:64-S128"
target triple = "x86_64-pc-linux-gnu"

@rb_eArgError = external global i64, align 8
@.str.115 = private unnamed_addr constant [24 x i8] c"Size can't be negative!\00", align 1
@.str.116 = private unnamed_addr constant [25 x i8] c"Flags can't be negative!\00", align 1
@.str.128 = private unnamed_addr constant [28 x i8] c"Invalid negative file size!\00", align 1
@.str.129 = private unnamed_addr constant [32 x i8] c"File larger than address space!\00", align 1

; Function Attrs: inlinehint nounwind sspstrong willreturn memory(none) uwtable
define internal i64 @rbimpl_fix2long_by_idiv(i64 noundef %0) #11 {
  %2 = alloca i64, align 8
  %3 = alloca i64, align 8
  %4 = alloca i64, align 8
  %5 = alloca i64, align 8
  store i64 %0, ptr %2, align 8, !tbaa !20
  call void @llvm.lifetime.start.p0(i64 8, ptr %3) #22
  %6 = load i64, ptr %2, align 8, !tbaa !20
  %7 = sub i64 %6, 1
  store i64 %7, ptr %3, align 8, !tbaa !20
  call void @llvm.lifetime.start.p0(i64 8, ptr %4) #22
  %8 = load i64, ptr %3, align 8, !tbaa !20
  %9 = sdiv i64 %8, 2
  store i64 %9, ptr %4, align 8, !tbaa !20
  call void @llvm.lifetime.start.p0(i64 8, ptr %5) #22
  %10 = load i64, ptr %4, align 8, !tbaa !20
  store i64 %10, ptr %5, align 8, !tbaa !20
  %11 = load i64, ptr %5, align 8, !tbaa !20
  call void @llvm.lifetime.end.p0(i64 8, ptr %5) #22
  call void @llvm.lifetime.end.p0(i64 8, ptr %4) #22
  call void @llvm.lifetime.end.p0(i64 8, ptr %3) #22
  ret i64 %11
}

; Function Attrs: inlinehint nounwind sspstrong willreturn memory(none) uwtable
define internal i64 @rbimpl_fix2long_by_shift(i64 noundef %0) #11 {
  %2 = alloca i64, align 8
  %3 = alloca i64, align 8
  %4 = alloca i64, align 8
  %5 = alloca i64, align 8
  store i64 %0, ptr %2, align 8, !tbaa !20
  call void @llvm.lifetime.start.p0(i64 8, ptr %3) #22
  %6 = load i64, ptr %2, align 8, !tbaa !20
  store i64 %6, ptr %3, align 8, !tbaa !20
  call void @llvm.lifetime.start.p0(i64 8, ptr %4) #22
  %7 = load i64, ptr %3, align 8, !tbaa !20
  %8 = ashr i64 %7, 1
  store i64 %8, ptr %4, align 8, !tbaa !20
  call void @llvm.lifetime.start.p0(i64 8, ptr %5) #22
  %9 = load i64, ptr %4, align 8, !tbaa !20
  store i64 %9, ptr %5, align 8, !tbaa !20
  %10 = load i64, ptr %5, align 8, !tbaa !20
  call void @llvm.lifetime.end.p0(i64 8, ptr %5) #22
  call void @llvm.lifetime.end.p0(i64 8, ptr %4) #22
  call void @llvm.lifetime.end.p0(i64 8, ptr %3) #22
  ret i64 %10
}

; Function Attrs: inlinehint nounwind sspstrong willreturn memory(none) uwtable
define internal zeroext i1 @rbimpl_right_shift_is_arithmetic_p() #11 {
  ret i1 true
}

; Function Attrs: inlinehint nounwind sspstrong uwtable
define internal i32 @RB_NUM2UINT(i64 noundef %0) #3 {
  %2 = alloca i64, align 8
  %3 = alloca i64, align 8
  store i64 %0, ptr %2, align 8, !tbaa !20
  call void @llvm.lifetime.start.p0(i64 8, ptr %3) #22
  %4 = load i64, ptr %2, align 8, !tbaa !20
  %5 = call i64 @rb_num2uint(i64 noundef %4)
  store i64 %5, ptr %3, align 8, !tbaa !20
  %6 = load i64, ptr %3, align 8, !tbaa !20
  %7 = trunc i64 %6 to i32
  call void @llvm.lifetime.end.p0(i64 8, ptr %3) #22
  ret i32 %7
}

; Function Attrs: inlinehint nounwind sspstrong willreturn memory(none) uwtable
define internal i64 @rb_fix2long(i64 noundef %0) #11 {
  %2 = alloca i64, align 8
  %3 = alloca i64, align 8
  store i64 %0, ptr %3, align 8, !tbaa !20
  %4 = call zeroext i1 @rbimpl_right_shift_is_arithmetic_p() #24
  br i1 %4, label %5, label %8

5:                                                ; preds = %1
  %6 = load i64, ptr %3, align 8, !tbaa !20
  %7 = call i64 @rbimpl_fix2long_by_shift(i64 noundef %6) #24
  store i64 %7, ptr %2, align 8
  br label %11

8:                                                ; preds = %1
  %9 = load i64, ptr %3, align 8, !tbaa !20
  %10 = call i64 @rbimpl_fix2long_by_idiv(i64 noundef %9) #24
  store i64 %10, ptr %2, align 8
  br label %11

11:                                               ; preds = %8, %5
  %12 = load i64, ptr %2, align 8
  ret i64 %12
}

; Function Attrs: inlinehint nounwind sspstrong willreturn memory(none) uwtable
define internal zeroext i1 @RB_FIXNUM_P(i64 noundef %0) #11 {
  %2 = alloca i64, align 8
  store i64 %0, ptr %2, align 8, !tbaa !20
  %3 = load i64, ptr %2, align 8, !tbaa !20
  %4 = and i64 %3, 1
  %5 = icmp ne i64 %4, 0
  ret i1 %5
}

; Function Attrs: inlinehint nounwind sspstrong uwtable
define internal i64 @rb_num2ull_inline(i64 noundef %0) #3 {
  %2 = alloca i64, align 8
  %3 = alloca i64, align 8
  store i64 %0, ptr %3, align 8, !tbaa !20
  %4 = load i64, ptr %3, align 8, !tbaa !20
  %5 = call zeroext i1 @RB_FIXNUM_P(i64 noundef %4) #24
  br i1 %5, label %6, label %9

6:                                                ; preds = %1
  %7 = load i64, ptr %3, align 8, !tbaa !20
  %8 = call i64 @rb_fix2long(i64 noundef %7) #24
  store i64 %8, ptr %2, align 8
  br label %12

9:                                                ; preds = %1
  %10 = load i64, ptr %3, align 8, !tbaa !20
  %11 = call i64 @rb_num2ull(i64 noundef %10)
  store i64 %11, ptr %2, align 8
  br label %12

12:                                               ; preds = %9, %6
  %13 = load i64, ptr %2, align 8
  ret i64 %13
}

; Function Attrs: inlinehint nounwind sspstrong uwtable
define internal i32 @io_buffer_extract_flags(i64 noundef %0) #3 {
  %2 = alloca i64, align 8
  %3 = alloca i32, align 4
  store i64 %0, ptr %2, align 8, !tbaa !20
  %4 = load i64, ptr %2, align 8, !tbaa !20
  %5 = call i32 @rb_int_negative_p(i64 noundef %4)
  %6 = icmp ne i32 %5, 0
  br i1 %6, label %7, label %9

7:                                                ; preds = %1
  %8 = load i64, ptr @rb_eArgError, align 8, !tbaa !20
  call void (i64, ptr, ...) @rb_raise(i64 noundef %8, ptr noundef @.str.116) #26
  unreachable

9:                                                ; preds = %1
  call void @llvm.lifetime.start.p0(i64 4, ptr %3) #22
  %10 = load i64, ptr %2, align 8, !tbaa !20
  %11 = call i32 @RB_NUM2UINT(i64 noundef %10)
  store i32 %11, ptr %3, align 4, !tbaa !32
  %12 = load i32, ptr %3, align 4, !tbaa !32
  %13 = and i32 %12, 239
  call void @llvm.lifetime.end.p0(i64 4, ptr %3) #22
  ret i32 %13
}

; Function Attrs: inlinehint nounwind sspstrong uwtable
define internal i64 @rb_num2long_inline(i64 noundef %0) #3 {
  %2 = alloca i64, align 8
  %3 = alloca i64, align 8
  store i64 %0, ptr %3, align 8, !tbaa !20
  %4 = load i64, ptr %3, align 8, !tbaa !20
  %5 = call zeroext i1 @RB_FIXNUM_P(i64 noundef %4) #24
  br i1 %5, label %6, label %9

6:                                                ; preds = %1
  %7 = load i64, ptr %3, align 8, !tbaa !20
  %8 = call i64 @rb_fix2long(i64 noundef %7) #24
  store i64 %8, ptr %2, align 8
  br label %12

9:                                                ; preds = %1
  %10 = load i64, ptr %3, align 8, !tbaa !20
  %11 = call i64 @rb_num2long(i64 noundef %10)
  store i64 %11, ptr %2, align 8
  br label %12

12:                                               ; preds = %9, %6
  %13 = load i64, ptr %2, align 8
  ret i64 %13
}

; Function Attrs: inlinehint nounwind sspstrong uwtable
define internal i64 @io_buffer_extract_size(i64 noundef %0) #3 {
  %2 = alloca i64, align 8
  store i64 %0, ptr %2, align 8, !tbaa !20
  %3 = load i64, ptr %2, align 8, !tbaa !20
  %4 = call i32 @rb_int_negative_p(i64 noundef %3)
  %5 = icmp ne i32 %4, 0
  br i1 %5, label %6, label %8

6:                                                ; preds = %1
  %7 = load i64, ptr @rb_eArgError, align 8, !tbaa !20
  call void (i64, ptr, ...) @rb_raise(i64 noundef %7, ptr noundef @.str.115) #26
  unreachable

8:                                                ; preds = %1
  %9 = load i64, ptr %2, align 8, !tbaa !20
  %10 = call i64 @rb_num2ull_inline(i64 noundef %9)
  ret i64 %10
}

; Function Attrs: inlinehint nounwind sspstrong willreturn memory(none) uwtable
define internal zeroext i1 @RB_NIL_P(i64 noundef %0) #11 {
  %2 = alloca i64, align 8
  store i64 %0, ptr %2, align 8, !tbaa !20
  %3 = load i64, ptr %2, align 8, !tbaa !20
  %4 = icmp eq i64 %3, 4
  ret i1 %4
}

; Function Attrs: inlinehint nounwind sspstrong uwtable
define internal i32 @rb_check_arity(i32 noundef %0, i32 noundef %1, i32 noundef %2) #3 {
  %4 = alloca i32, align 4
  %5 = alloca i32, align 4
  %6 = alloca i32, align 4
  store i32 %0, ptr %4, align 4, !tbaa !32
  store i32 %1, ptr %5, align 4, !tbaa !32
  store i32 %2, ptr %6, align 4, !tbaa !32
  %7 = load i32, ptr %4, align 4, !tbaa !32
  %8 = load i32, ptr %5, align 4, !tbaa !32
  %9 = icmp slt i32 %7, %8
  br i1 %9, label %17, label %10

10:                                               ; preds = %3
  %11 = load i32, ptr %6, align 4, !tbaa !32
  %12 = icmp ne i32 %11, -1
  br i1 %12, label %13, label %21

13:                                               ; preds = %10
  %14 = load i32, ptr %4, align 4, !tbaa !32
  %15 = load i32, ptr %6, align 4, !tbaa !32
  %16 = icmp sgt i32 %14, %15
  br i1 %16, label %17, label %21

17:                                               ; preds = %13, %3
  %18 = load i32, ptr %4, align 4, !tbaa !32
  %19 = load i32, ptr %5, align 4, !tbaa !32
  %20 = load i32, ptr %6, align 4, !tbaa !32
  call void @rb_error_arity(i32 noundef %18, i32 noundef %19, i32 noundef %20) #26
  unreachable

21:                                               ; preds = %13, %10
  %22 = load i32, ptr %4, align 4, !tbaa !32
  ret i32 %22
}

; Function Attrs: nounwind sspstrong uwtable
define internal i64 @io_buffer_map(i32 noundef %0, ptr noundef %1, i64 noundef %2) #0 {
  %4 = alloca i32, align 4
  %5 = alloca ptr, align 8
  %6 = alloca i64, align 8
  %7 = alloca i64, align 8
  %8 = alloca i64, align 8
  %9 = alloca i64, align 8
  %10 = alloca i64, align 8
  %11 = alloca i32, align 4
  store i32 %0, ptr %4, align 4, !tbaa !32
  store ptr %1, ptr %5, align 8, !tbaa !33
  store i64 %2, ptr %6, align 8, !tbaa !20
  %12 = load i32, ptr %4, align 4, !tbaa !32
  %13 = call i32 @rb_check_arity(i32 noundef %12, i32 noundef 1, i32 noundef 4)
  call void @llvm.lifetime.start.p0(i64 8, ptr %7) #22
  %14 = load ptr, ptr %5, align 8, !tbaa !33
  %15 = getelementptr i64, ptr %14, i64 0
  %16 = load i64, ptr %15, align 8, !tbaa !20
  store i64 %16, ptr %7, align 8, !tbaa !20
  call void @llvm.lifetime.start.p0(i64 8, ptr %8) #22
  %17 = load i32, ptr %4, align 4, !tbaa !32
  %18 = icmp sge i32 %17, 2
  br i1 %18, label %19, label %29

19:                                               ; preds = %3
  %20 = load ptr, ptr %5, align 8, !tbaa !33
  %21 = getelementptr i64, ptr %20, i64 1
  %22 = load i64, ptr %21, align 8, !tbaa !20
  %23 = call zeroext i1 @RB_NIL_P(i64 noundef %22) #24
  br i1 %23, label %29, label %24

24:                                               ; preds = %19
  %25 = load ptr, ptr %5, align 8, !tbaa !33
  %26 = getelementptr i64, ptr %25, i64 1
  %27 = load i64, ptr %26, align 8, !tbaa !20
  %28 = call i64 @io_buffer_extract_size(i64 noundef %27)
  store i64 %28, ptr %8, align 8, !tbaa !20
  br label %45

29:                                               ; preds = %19, %3
  call void @llvm.lifetime.start.p0(i64 8, ptr %9) #22
  %30 = load i64, ptr %7, align 8, !tbaa !20
  %31 = call i64 @rb_file_size(i64 noundef %30)
  store i64 %31, ptr %9, align 8, !tbaa !20
  %32 = load i64, ptr %9, align 8, !tbaa !20
  %33 = icmp slt i64 %32, 0
  br i1 %33, label %34, label %36

34:                                               ; preds = %29
  %35 = load i64, ptr @rb_eArgError, align 8, !tbaa !20
  call void (i64, ptr, ...) @rb_raise(i64 noundef %35, ptr noundef @.str.128) #26
  unreachable

36:                                               ; preds = %29
  %37 = load i64, ptr %9, align 8, !tbaa !20
  %38 = icmp ugt i64 %37, -1
  br i1 %38, label %39, label %41

39:                                               ; preds = %36
  %40 = load i64, ptr @rb_eArgError, align 8, !tbaa !20
  call void (i64, ptr, ...) @rb_raise(i64 noundef %40, ptr noundef @.str.129) #26
  unreachable

41:                                               ; preds = %36
  %42 = load i64, ptr %9, align 8, !tbaa !20
  store i64 %42, ptr %8, align 8, !tbaa !20
  br label %43

43:                                               ; preds = %41
  br label %44

44:                                               ; preds = %43
  call void @llvm.lifetime.end.p0(i64 8, ptr %9) #22
  br label %45

45:                                               ; preds = %44, %24
  call void @llvm.lifetime.start.p0(i64 8, ptr %10) #22
  store i64 0, ptr %10, align 8, !tbaa !20
  %46 = load i32, ptr %4, align 4, !tbaa !32
  %47 = icmp sge i32 %46, 3
  br i1 %47, label %48, label %53

48:                                               ; preds = %45
  %49 = load ptr, ptr %5, align 8, !tbaa !33
  %50 = getelementptr i64, ptr %49, i64 2
  %51 = load i64, ptr %50, align 8, !tbaa !20
  %52 = call i64 @rb_num2long_inline(i64 noundef %51)
  store i64 %52, ptr %10, align 8, !tbaa !20
  br label %53

53:                                               ; preds = %48, %45
  call void @llvm.lifetime.start.p0(i64 4, ptr %11) #22
  store i32 0, ptr %11, align 4, !tbaa !32
  %54 = load i32, ptr %4, align 4, !tbaa !32
  %55 = icmp sge i32 %54, 4
  br i1 %55, label %56, label %61

56:                                               ; preds = %53
  %57 = load ptr, ptr %5, align 8, !tbaa !33
  %58 = getelementptr i64, ptr %57, i64 3
  %59 = load i64, ptr %58, align 8, !tbaa !20
  %60 = call i32 @io_buffer_extract_flags(i64 noundef %59)
  store i32 %60, ptr %11, align 4, !tbaa !32
  br label %61

61:                                               ; preds = %56, %53
  %62 = load i64, ptr %7, align 8, !tbaa !20
  %63 = load i64, ptr %8, align 8, !tbaa !20
  %64 = load i64, ptr %10, align 8, !tbaa !20
  %65 = load i32, ptr %11, align 4, !tbaa !32
  %66 = call i64 @rb_io_buffer_map(i64 noundef %62, i64 noundef %63, i64 noundef %64, i32 noundef %65)
  call void @llvm.lifetime.end.p0(i64 4, ptr %11) #22
  call void @llvm.lifetime.end.p0(i64 8, ptr %10) #22
  call void @llvm.lifetime.end.p0(i64 8, ptr %8) #22
  call void @llvm.lifetime.end.p0(i64 8, ptr %7) #22
  ret i64 %66
}