; Function Attrs: nounwind sspstrong uwtable
define internal i64 @io_buffer_map(i32 noundef %0, ptr noundef readonly captures(none) %1, i64 %2) #0 {
  %4 = add i32 %0, -5
  %or.cond.i = icmp ult i32 %4, -4
  br i1 %or.cond.i, label %5, label %rb_check_arity.exit

5:                                                ; preds = %3
  tail call void @rb_error_arity(i32 noundef %0, i32 noundef 1, i32 noundef 4) #26
  unreachable

rb_check_arity.exit:                              ; preds = %3
  %6 = load i64, ptr %1, align 8, !tbaa !22
  %7 = icmp samesign ugt i32 %0, 1
  br i1 %7, label %8, label %22

8:                                                ; preds = %rb_check_arity.exit
  %9 = getelementptr i8, ptr %1, i64 8
  %10 = load i64, ptr %9, align 8, !tbaa !22
  %11 = icmp eq i64 %10, 4
  br i1 %11, label %22, label %12

12:                                               ; preds = %8
  %13 = tail call i32 @rb_int_negative_p(i64 noundef %10) #25
  %.not.i = icmp eq i32 %13, 0
  br i1 %.not.i, label %16, label %14

14:                                               ; preds = %12
  %15 = load i64, ptr @rb_eArgError, align 8, !tbaa !22
  tail call void (i64, ptr, ...) @rb_raise(i64 noundef %15, ptr noundef nonnull @.str.115) #26
  unreachable

16:                                               ; preds = %12
  %17 = and i64 %10, 1
  %.not.i.i = icmp eq i64 %17, 0
  br i1 %.not.i.i, label %20, label %18

18:                                               ; preds = %16
  %19 = ashr i64 %10, 1
  br label %io_buffer_extract_size.exit

20:                                               ; preds = %16
  %21 = tail call i64 @rb_num2ull(i64 noundef %10) #25
  br label %io_buffer_extract_size.exit

22:                                               ; preds = %8, %rb_check_arity.exit
  %23 = tail call i64 @rb_file_size(i64 noundef %6) #25
  %24 = icmp slt i64 %23, 0
  br i1 %24, label %25, label %io_buffer_extract_size.exit

25:                                               ; preds = %22
  %26 = load i64, ptr @rb_eArgError, align 8, !tbaa !22
  tail call void (i64, ptr, ...) @rb_raise(i64 noundef %26, ptr noundef nonnull @.str.128) #26
  unreachable

io_buffer_extract_size.exit:                      ; preds = %20, %18, %22
  %.017 = phi i64 [ %23, %22 ], [ %19, %18 ], [ %21, %20 ]
  %27 = icmp samesign ugt i32 %0, 2
  br i1 %27, label %28, label %rb_num2long_inline.exit.thread

28:                                               ; preds = %io_buffer_extract_size.exit
  %29 = getelementptr i8, ptr %1, i64 16
  %30 = load i64, ptr %29, align 8, !tbaa !22
  %31 = and i64 %30, 1
  %.not.i19 = icmp eq i64 %31, 0
  br i1 %.not.i19, label %34, label %32

32:                                               ; preds = %28
  %33 = ashr i64 %30, 1
  br label %rb_num2long_inline.exit

34:                                               ; preds = %28
  %35 = tail call i64 @rb_num2long(i64 noundef %30) #25
  br label %rb_num2long_inline.exit

rb_num2long_inline.exit:                          ; preds = %34, %32
  %.016 = phi i64 [ %33, %32 ], [ %35, %34 ]
  %.not = icmp eq i32 %0, 3
  br i1 %.not, label %rb_num2long_inline.exit.thread, label %36

36:                                               ; preds = %rb_num2long_inline.exit
  %37 = getelementptr i8, ptr %1, i64 24
  %38 = load i64, ptr %37, align 8, !tbaa !22
  %39 = tail call i32 @rb_int_negative_p(i64 noundef %38) #25
  %.not.i20 = icmp eq i32 %39, 0
  br i1 %.not.i20, label %io_buffer_extract_flags.exit, label %40

40:                                               ; preds = %36
  %41 = load i64, ptr @rb_eArgError, align 8, !tbaa !22
  tail call void (i64, ptr, ...) @rb_raise(i64 noundef %41, ptr noundef nonnull @.str.116) #26
  unreachable

io_buffer_extract_flags.exit:                     ; preds = %36
  %42 = tail call i64 @rb_num2uint(i64 noundef %38) #25
  %43 = trunc i64 %42 to i32
  %44 = and i32 %43, 239
  br label %rb_num2long_inline.exit.thread

rb_num2long_inline.exit.thread:                   ; preds = %io_buffer_extract_size.exit, %io_buffer_extract_flags.exit, %rb_num2long_inline.exit
  %.01622 = phi i64 [ %.016, %io_buffer_extract_flags.exit ], [ %.016, %rb_num2long_inline.exit ], [ 0, %io_buffer_extract_size.exit ]
  %.0 = phi i32 [ %44, %io_buffer_extract_flags.exit ], [ 0, %rb_num2long_inline.exit ], [ 0, %io_buffer_extract_size.exit ]
  %45 = tail call i64 @rb_io_buffer_map(i64 noundef %6, i64 noundef %.017, i64 noundef %.01622, i32 noundef %.0)
  ret i64 %45
}